(lp0
S'stage.0001'
p1
aS'stage.0003'
p2
aS'stage.0005'
p3
aS'stage.0007'
p4
aS'stage.0009'
p5
aS'stage.0011'
p6
aS'stage.0013'
p7
aS'stage.0015'
p8
aS'stage.0017'
p9
aS'stage.0019'
p10
aS'stage.0021'
p11
a.